target datalayout = "e-m:e-p270:32:32-p271:32:32-p272:64:64-i64:64-i128:128-f80:128-n8:16:32:64-S128"
target triple = "x86_64-pc-linux-gnu"

%"class.o3dgc::DynamicVectorDecoder" = type <{ i64, i64, i64, i64, i64, ptr, %"class.o3dgc::DVEncodeParams", i32, [4 x i8] }>
%"class.o3dgc::DVEncodeParams" = type { i64, i32, i32 }

; Function Attrs: mustprogress nounwind uwtable
define linkonce_odr hidden void @_ZN5o3dgc14DVEncodeParamsC2Ev(ptr noundef nonnull align 8 dereferenceable(16) %0) unnamed_addr #0 comdat align 2 {
  %2 = alloca ptr, align 8
  store ptr %0, ptr %2, align 8
  %3 = load ptr, ptr %2, align 8
  %4 = getelementptr inbounds nuw %"class.o3dgc::DVEncodeParams", ptr %3, i32 0, i32 0
  store i64 10, ptr %4, align 8
  %5 = getelementptr inbounds nuw %"class.o3dgc::DVEncodeParams", ptr %3, i32 0, i32 1
  store i32 1, ptr %5, align 8
  %6 = getelementptr inbounds nuw %"class.o3dgc::DVEncodeParams", ptr %3, i32 0, i32 2
  store i32 0, ptr %6, align 4
  ret void
}

; Function Attrs: mustprogress uwtable
define hidden void @_ZN5o3dgc20DynamicVectorDecoderC2Ev(ptr noundef nonnull align 8 dereferenceable(68) %0) unnamed_addr #2 align 2 {
  %2 = alloca ptr, align 8
  store ptr %0, ptr %2, align 8
  %3 = load ptr, ptr %2, align 8
  %4 = getelementptr inbounds nuw %"class.o3dgc::DynamicVectorDecoder", ptr %3, i32 0, i32 6
  call void @_ZN5o3dgc14DVEncodeParamsC2Ev(ptr noundef nonnull align 8 dereferenceable(16) %4)
  %5 = getelementptr inbounds nuw %"class.o3dgc::DynamicVectorDecoder", ptr %3, i32 0, i32 0
  store i64 0, ptr %5, align 8
  %6 = getelementptr inbounds nuw %"class.o3dgc::DynamicVectorDecoder", ptr %3, i32 0, i32 1
  store i64 0, ptr %6, align 8
  %7 = getelementptr inbounds nuw %"class.o3dgc::DynamicVectorDecoder", ptr %3, i32 0, i32 2
  store i64 0, ptr %7, align 8
  %8 = getelementptr inbounds nuw %"class.o3dgc::DynamicVectorDecoder", ptr %3, i32 0, i32 3
  store i64 0, ptr %8, align 8
  %9 = getelementptr inbounds nuw %"class.o3dgc::DynamicVectorDecoder", ptr %3, i32 0, i32 5
  store ptr null, ptr %9, align 8
  %10 = getelementptr inbounds nuw %"class.o3dgc::DynamicVectorDecoder", ptr %3, i32 0, i32 4
  store i64 0, ptr %10, align 8
  %11 = getelementptr inbounds nuw %"class.o3dgc::DynamicVectorDecoder", ptr %3, i32 0, i32 7
  store i32 0, ptr %11, align 8
  ret void
}