; Function Attrs: mustprogress nofree norecurse nosync nounwind willreturn memory(argmem: write) uwtable
define hidden void @_ZN5o3dgc20DynamicVectorDecoderC2Ev(ptr noundef nonnull writeonly align 8 captures(none) dereferenceable(68) initializes((0, 68)) %0) unnamed_addr #2 align 2 {
  %2 = getelementptr inbounds nuw i8, ptr %0, i64 48
  store i64 10, ptr %2, align 8
  %3 = getelementptr inbounds nuw i8, ptr %0, i64 56
  store i32 1, ptr %3, align 8
  %4 = getelementptr inbounds nuw i8, ptr %0, i64 60
  store i32 0, ptr %4, align 4
  %5 = getelementptr inbounds nuw i8, ptr %0, i64 64
  store i32 0, ptr %5, align 8
  tail call void @llvm.memset.p0.i64(ptr noundef nonnull align 8 dereferenceable(48) %0, i8 0, i64 48, i1 false)
  ret void
}